(lp0
((F-1193.994044549174
F160.77730230364472
F113.52419250645295
F0.7935388956003511
F3.0273202590062596
tp1
(I11
I111
tp2
tp3
a((F972.9043665830816
F7.622358176522531
F85.09128332240131
F0.9852225395736751
F0.005327696190429249
tp4
(I4
I293
tp5
tp6
a((F713.7236142898757
F1171.132358048727
F113.60257726845647
F0.7451123192510558
F1.0794126749382706
tp7
(I15
I95
tp8
tp9
a((F-305.2323936479596
F-739.8757939324465
F97.9522490144925
F0.7569384205738955
F4.018828793969051
tp10
(I11
I319
tp11
tp12
a((F-181.51875853086545
F69.49666810553225
F74.36361573894544
F1.0380319803172406
F3.057366984338889
tp13
(I28
I310
tp14
tp15
a((F551.2436939235561
F274.8556446069375
F72.7504434422615
F0.9003181127849809
F0.4870330995930622
tp16
(I29
I87
tp17
tp18
a((F167.28488620216615
F910.4534002978843
F99.35149294818868
F0.5725670114791136
F1.396093604531407
tp19
(I8
I8
tp20
tp21
a((F509.12481035485547
F121.50742354103193
F49.9279043673895
F1.0474985828129335
F0.4390266781266146
tp22
(I28
I310
tp23
tp24
a((F987.0992430658591
F625.9942121301333
F112.18412189401793
F0.39936128876069343
F0.7198799689903308
tp25
(I20
I296
tp26
tp27
a((F-196.80258764030532
F251.64511486515545
F93.99512806441749
F1.1118954400652885
F2.8250882781350906
tp28
(I29
I483
tp29
tp30
a((F64.98560585789164
F-52.2075274783049
F79.70231036577756
F1.2953593077445076
F3.3442091058210193
tp31
(I16
I397
tp32
tp33
a((F615.4631147858042
F216.5394763987968
F56.940512919229974
F0.8254002772043024
F0.673719324070778
tp34
(I11
I358
tp35
tp36
a((F956.3839702288923
F-394.35922750165133
F113.2986882651321
F1.2634498632262698
F5.693966276544409
tp37
(I25
I329
tp38
tp39
a((F95.25968294863753
F75.27340631707997
F47.279806979268386
F0.28483470923674564
F2.6568147588634368
tp40
(I18
I204
tp41
tp42
a((F-221.87255717495134
F-141.25424269237303
F84.57560577582178
F0.5199472679616582
F3.4240504755313492
tp43
(I34
I382
tp44
tp45
a((F496.85125704800976
F-698.9782055804562
F98.88256155574956
F0.4262982839989617
F5.01247032902004
tp46
(I18
I275
tp47
tp48
a((F207.5573918614294
F-543.7289225220991
F79.51923554559943
F0.6057637959114935
F4.32949604849874
tp49
(I16
I433
tp50
tp51
a((F-540.6385308885822
F80.10180318583815
F95.29779284332366
F1.090166583046323
F3.0808182501083796
tp52
(I34
I217
tp53
tp54
a((F211.8831482713993
F486.5487971097232
F72.08985003416781
F0.6180686065604383
F1.3267949427884491
tp55
(I1
I91
tp56
tp57
a((F238.92362182476768
F-203.95832703827094
F53.28938375497425
F1.0330110569722575
F5.225025038891833
tp58
(I18
I114
tp59
tp60
a((F151.45213097551397
F766.9772082370581
F88.11056321630738
F0.6468492541473557
F1.7178690811984902
tp61
(I14
I263
tp62
tp63
a((F-6.344615284746112
F-731.9039345751406
F105.272227501357
F0.4527127608417438
F4.148036208621247
tp64
(I19
I469
tp65
tp66
a((F275.21153200467575
F66.70623036419131
F54.08731321635169
F0.574708118662076
F0.1464350858919228
tp67
(I27
I6
tp68
tp69
a((F478.4077969379734
F-18.446897072249147
F60.02716564543225
F0.679581927450422
F6.2206375133603125
tp70
(I4
I120
tp71
tp72
a((F201.9209058879199
F-343.3972300669811
F73.21596398632019
F0.3700679007338316
F4.861980206935781
tp73
(I21
I147
tp74
tp75
a((F152.02285200425683
F-576.6850008101678
F89.38357939865183
F0.44991043761760924
F4.301159945236127
tp76
(I8
I407
tp77
tp78
a((F133.2457067079336
F977.0620649909332
F97.87456357205238
F0.7061992667401132
F1.5030814104162074
tp79
(I15
I68
tp80
tp81
a((F539.3213038625449
F327.4346026535036
F57.42513461162557
F0.9698567041381507
F1.3901825374489623
tp82
(I19
I483
tp83
tp84
a((F75.29991084512238
F1128.11738270682
F109.60671374277167
F0.5650447095374553
F1.5407273613868533
tp85
(I21
I42
tp86
tp87
a((F-42.18740775467944
F-191.5936402125195
F71.81657518396122
F1.051499654753492
F3.615111791947967
tp88
(I15
I361
tp89
tp90
a((F498.3704595568413
F243.79080346533627
F64.12085446552447
F1.2382100469742405
F1.1470095929233313
tp91
(I8
I392
tp92
tp93
a((F638.9483384082575
F886.7608965509672
F104.35121835987599
F0.9375618357331656
F0.9753758677954537
tp94
(I10
I45
tp95
tp96
a((F371.1119567374288
F464.5498565799047
F66.98273924581291
F0.8370096694499424
F1.7383945636322522
tp97
(I16
I447
tp98
tp99
a((F-12.442833965658473
F-777.5830341089077
F92.07623788737997
F0.5847436049038358
F4.662790029602849
tp100
(I17
I27
tp101
tp102
a((F-498.3392606531179
F-29.750168767883736
F83.2676661589201
F0.6018701303704534
F3.2262020398772844
tp103
(I26
I159
tp104
tp105
a((F-67.36806646007977
F107.73159391532845
F51.149446567380075
F0.9994829634413549
F2.690673001328821
tp106
(I2
I151
tp107
tp108
a((F-133.48783866171857
F-537.2463820046827
F109.19506480608794
F1.2659421521747907
F4.051009874368733
tp109
(I12
I294
tp110
tp111
a((F723.5562579965463
F980.2925646326916
F109.26381513316367
F0.5964240154348367
F1.0225070025820628
tp112
(I15
I134
tp113
tp114
a((F986.3878059202668
F-739.7754887199296
F105.52199286666114
F0.6425867861362408
F5.502080374634732
tp115
(I27
I213
tp116
tp117
a((F692.9883444549355
F160.39816768154097
F77.4701484759268
F1.2610473062633147
F0.3941060153903158
tp118
(I24
I365
tp119
tp120
a((F-833.7846492081446
F39.700257454795064
F95.52376037453159
F0.787936924675801
F3.1139586038958966
tp121
(I14
I96
tp122
tp123
a((F542.5086966963959
F-1119.482321545938
F108.0235149164093
F0.7328674391609852
F5.0026020861721054
tp124
(I14
I204
tp125
tp126
a((F537.0776607459388
F111.06491621839739
F93.74945303323815
F1.3056380713040936
F0.21135162113050285
tp127
(I16
I94
tp128
tp129
a((F73.01019633552391
F-351.3092421788221
F62.184780253473654
F0.5881229649740183
F4.482306981330151
tp130
(I3
I156
tp131
tp132
a((F71.69677692751453
F-328.5141135680239
F58.02291955210128
F0.8721691604498616
F4.767727962048244
tp133
(I9
I53
tp134
tp135
a((F817.9641412951154
F-49.046660329829606
F89.30087860824936
F0.8624076972313025
F6.207115903067761
tp136
(I12
I17
tp137
tp138
a((F196.06654957047596
F386.8057064226213
F82.07666122861318
F0.29307005130222424
F1.8125365602379313
tp139
(I18
I287
tp140
tp141
a((F-445.1577873143574
F-133.21640385422137
F92.08076700444389
F1.21774324107949
F3.4331674070444764
tp142
(I28
I92
tp143
tp144
a((F-17.374568685994575
F-663.5639964747893
F98.22328429197249
F1.143465142627806
F4.289632443996238
tp145
(I13
I287
tp146
tp147
a((F-56.09275013670529
F56.012802046996214
F48.37863136884285
F0.4618180454128781
F2.9565911324636622
tp148
(I21
I131
tp149
tp150
a((F789.3670259745899
F-158.38988137404112
F81.572563791955
F1.2341233239441078
F5.858229981739078
tp151
(I16
I404
tp152
tp153
a((F686.0146993134306
F-86.05132928427402
F71.81075453508835
F0.9400739925498144
F6.057490715591375
tp154
(I26
I198
tp155
tp156
a((F638.8616607977538
F49.32536372878546
F47.50624171744781
F0.5640856483373778
F0.1707560111082068
tp157
(I14
I434
tp158
tp159
a((F441.06240507815437
F267.24647585749335
F58.17690088931989
F1.077228319651732
F1.0824808887788475
tp160
(I13
I306
tp161
tp162
a((F902.4369896455213
F476.42010479955485
F93.29664325853466
F0.6110782485323795
F0.5691722221219749
tp163
(I27
I200
tp164
tp165
a((F363.07154740513846
F213.33056573784947
F47.030145756591544
F0.9493153234620523
F1.4294489884919297
tp166
(I2
I333
tp167
tp168
a((F-585.289146400212
F-398.303917178621
F108.87968402867826
F1.2066990485035332
F3.690041257574562
tp169
(I21
I101
tp170
tp171
a((F-292.7344972750401
F660.0724634572624
F94.47991208587156
F0.6846736532925726
F2.3519607458882494
tp172
(I27
I335
tp173
tp174
a((F-357.01002453557794
F32.74477087612003
F81.50090658658966
F0.5510095866960382
F3.1287711006957535
tp175
(I25
I247
tp176
tp177
a((F-365.259704070285
F616.9938375336219
F90.5368225846597
F0.8158618041048621
F2.310621168509372
tp178
(I1
I197
tp179
tp180
a((F770.7564726349076
F102.22041301108113
F83.87517324428235
F0.3109007826671285
F0.19567987945983428
tp181
(I21
I361
tp182
tp183
a((F-501.89722704746123
F389.14463995659594
F78.6694599433534
F0.8585439655298501
F2.5186375802048855
tp184
(I25
I5
tp185
tp186
a((F741.553977397743
F56.234850956594244
F68.74832628908986
F0.4746957127065522
F0.07726119442814094
tp187
(I26
I351
tp188
tp189
a((F256.725587897584
F192.86331535752998
F53.53811948702738
F1.1866177252591352
F2.0205362936751277
tp190
(I10
I345
tp191
tp192
a((F761.4918865471773
F27.608277341422287
F66.14866562197444
F0.5657510632924488
F0.03123774345092757
tp193
(I15
I358
tp194
tp195
a((F-221.1894049663265
F-612.8027289741522
F99.0779708980044
F1.0232082353907503
F3.9155550945722872
tp196
(I9
I415
tp197
tp198
a((F335.23099935018536
F655.3209948120652
F108.04196197521902
F0.2824938674503913
F1.5217551065485264
tp199
(I19
I304
tp200
tp201
a((F-16.20902962793292
F-164.0480048320538
F70.1348927692766
F0.4382408537113952
F3.657358912674177
tp202
(I26
I319
tp203
tp204
a((F97.5336607740604
F-369.0617908544237
F81.5701258724798
F1.1970122647603674
F4.166336230423621
tp205
(I25
I337
tp206
tp207
a((F311.5349802656881
F671.8368517260833
F96.59780438627446
F0.4037561636467327
F1.2302871654586534
tp208
(I24
I82
tp209
tp210
a((F-513.2332289955932
F-627.903078095816
F107.36623713895882
F0.41508616297284895
F3.951183934870178
tp211
(I0
I85
tp212
tp213
a((F911.2047331635453
F-154.4973807684582
F99.8709741460603
F1.0670210825002284
F6.087094138484133
tp214
(I13
I68
tp215
tp216
a((F237.80764100563286
F502.2289796181764
F97.91910713402052
F0.29657791757376134
F2.036208545603305
tp217
(I14
I483
tp218
tp219
a((F888.1850291512068
F-672.9789024456659
F111.59648561894461
F0.39902027445889116
F5.42631615610806
tp220
(I14
I293
tp221
tp222
a((F139.25373791856973
F439.9337934334994
F67.25704299835056
F0.9669462753015596
F1.343215477434957
tp223
(I20
I42
tp224
tp225
a((F348.280179225563
F-916.4454515262735
F100.18345553783517
F1.0042917174659878
F4.661948199326205
tp226
(I9
I395
tp227
tp228
a((F102.18900296112105
F-52.61790963106243
F55.11349399194892
F1.231053961309934
F3.4910455850685134
tp229
(I14
I285
tp230
tp231
a((F-258.9538415432552
F306.1597117931106
F83.30193574520935
F1.124590437542377
F2.5930963970019976
tp232
(I19
I211
tp233
tp234
a((F-649.9412423854546
F-689.2217042003165
F108.19451703576057
F0.5061678871649051
F3.9264880523466195
tp235
(I26
I66
tp236
tp237
a((F-269.65848044217637
F-170.60711498623954
F63.463514695383346
F0.6094476975486972
F3.6499945046040625
tp238
(I17
I67
tp239
tp240
a((F78.13532692808597
F673.2170879967172
F96.07057287811203
F0.3875521738767529
F1.5933757266744493
tp241
(I15
I93
tp242
tp243
a((F-506.9169279158815
F-125.20841253365109
F106.45439361869445
F0.26731606939527475
F3.38736110643896
tp244
(I18
I64
tp245
tp246
a((F-310.49858222906795
F-380.0580462831837
F78.12565748343685
F0.9817440931834689
F3.8969213197075083
tp247
(I14
I108
tp248
tp249
a((F1077.4481600241731
F-244.39819921477456
F98.80701242873627
F1.066408227369229
F5.9750490320691645
tp250
(I11
I275
tp251
tp252
a((F-524.9847120256334
F166.94687200310568
F83.14543414894267
F0.7785757176016134
F2.95178151127235
tp253
(I34
I167
tp254
tp255
a((F100.15273520193593
F784.6026537541492
F108.87965523476464
F1.2296953512600455
F1.541717527244967
tp256
(I23
I78
tp257
tp258
a((F365.8654180347974
F197.57363248765523
F46.278446104725724
F0.9598726533142768
F2.114519422141505
tp259
(I22
I472
tp260
tp261
a((F-363.2015253354474
F30.60177204026382
F73.62975286820156
F0.8035860474465131
F3.126016679952732
tp262
(I22
I189
tp263
tp264
a((F297.57316060789265
F193.49336628451005
F52.9115950411791
F1.2351061444242375
F1.5506678109760232
tp265
(I16
I294
tp266
tp267
a((F535.4315117768135
F578.8046049252356
F86.39108859183574
F0.41327661700362395
F1.439205544992052
tp268
(I24
I462
tp269
tp270
a((F723.8414871459107
F465.5080075481404
F88.20482472351634
F0.6339702709335073
F0.6473341126103141
tp271
(I9
I120
tp272
tp273
a((F647.5495814537229
F-350.997801368818
F71.10481088997228
F0.8555776182786978
F5.477765881589375
tp274
(I17
I294
tp275
tp276
a((F458.4020876716169
F-341.476538487261
F74.64584626058014
F0.6801371437060572
F5.538440511623917
tp277
(I35
I50
tp278
tp279
a((F-43.14853494121988
F-352.99799970931986
F71.43075908410871
F1.1087305931475457
F4.200997568838261
tp280
(I9
I160
tp281
tp282
a((F-136.9003380122566
F-365.0684934028938
F72.98840232226598
F1.00022629727557
F3.9859896925274847
tp283
(I4
I191
tp284
tp285
a((F156.04561438739827
F-750.712089978123
F93.44234310337892
F0.5118050580709702
F4.65189394733739
tp286
(I8
I202
tp287
tp288
a((F487.2661392497621
F262.55746765232686
F58.666232228097385
F0.9836937760589404
F0.9307610557402896
tp289
(I3
I294
tp290
tp291
a((F-587.2843586765255
F323.31122829636615
F90.75726699649996
F0.9229328528144858
F2.7447726922955655
tp292
(I11
I158
tp293
tp294
a((F40.152375759761725
F-526.7754589312947
F74.42968685424442
F0.7349055792946299
F4.698420563452143
tp295
(I35
I48
tp296
tp297
a((F31.151953935488535
F-158.4229157223435
F61.03000742015215
F0.3500395636470618
F3.9893964556085937
tp298
(I25
I193
tp299
tp300
a((F-540.1328472495366
F457.50639035142495
F83.41192915492718
F0.7826809215989097
F2.492838701380951
tp301
(I29
I25
tp302
tp303
a((F192.09785970923247
F-320.5618685757998
F63.74761371925538
F0.8372545526953906
F4.114569941569123
tp304
(I20
I424
tp305
tp306
a((F-554.1488277817122
F484.2695949917312
F88.19226389114026
F0.8006917508911746
F2.4984368158215395
tp307
(I9
I80
tp308
tp309
a((F894.7759413039889
F-430.5695816968801
F110.10583086225283
F1.1116338179948941
F5.7961431607264915
tp310
(I29
I27
tp311
tp312
a((F-170.56611692923968
F403.2791778457138
F72.7176864961098
F0.6262183014357243
F2.3358710381240724
tp313
(I34
I184
tp314
tp315
a((F-768.5656531611626
F-32.75640629149299
F104.3979400361587
F0.6242380032729661
F3.1897769347820026
tp316
(I18
I284
tp317
tp318
a((F-319.24944169849414
F537.4523681391519
F101.49735348317603
F0.5683538954902542
F2.5699342859113323
tp319
(I22
I482
tp320
tp321
a((F682.3410824378129
F-647.9938200153096
F102.6853876707408
F0.5259389236996319
F5.466983836002136
tp322
(I32
I43
tp323
tp324
a((F-290.28847732056744
F128.09896650559887
F57.7948703727841
F0.6121489092175472
F2.7605540624327043
tp325
(I9
I7
tp326
tp327
a((F22.55256236228169
F439.82856412745906
F64.79711400348347
F0.8433292232349647
F1.7563860636224182
tp328
(I22
I101
tp329
tp330
a((F474.2893577794566
F184.7325000071324
F62.64921183157051
F0.4081417117436518
F0.6600102927161704
tp331
(I6
I244
tp332
tp333
a((F916.4724378570777
F265.1499635780499
F100.23366512683972
F0.3428956997000575
F0.37930527157546845
tp334
(I25
I314
tp335
tp336
a((F1144.0552352439188
F755.3152903954256
F111.31596293224744
F0.8154715019938626
F0.6403437561087657
tp337
(I2
I133
tp338
tp339
a((F127.3394998095913
F-41.29459800232465
F46.00127875428631
F0.4635331044984949
F3.4985828523380142
tp340
(I19
I289
tp341
tp342
a((F117.51455833629643
F-80.87985580108545
F50.490528487474855
F0.39909073036775855
F3.6828811821985763
tp343
(I15
I277
tp344
tp345
a((F240.81787799560172
F410.7424112031336
F68.84698273405017
F0.4722686635771225
F1.4766086323564016
tp346
(I21
I204
tp347
tp348
a((F-136.49437940374094
F-945.7536049774435
F114.20725496423324
F0.4903024630331617
F4.207340775482515
tp349
(I21
I398
tp350
tp351
a((F279.3793037325205
F-395.2980556207674
F88.34972363673509
F0.28481053672538265
F4.363690559093937
tp352
(I8
I426
tp353
tp354
a((F462.89964842201414
F-306.05035638627396
F57.29244215389764
F0.7900784694016295
F4.877217067558051
tp355
(I24
I408
tp356
tp357
a((F218.71212444212384
F330.65206170446464
F70.12752968740969
F1.2105181167697385
F1.7081454843688344
tp358
(I3
I264
tp359
tp360
a((F862.3655408431194
F-102.28928936116993
F84.53336172511762
F0.3277564193855293
F6.034496918499405
tp361
(I7
I432
tp362
tp363
a((F920.8695431505517
F-580.8558375020999
F99.93458231540706
F1.0818645789749644
F5.4776962021551965
tp364
(I28
I336
tp365
tp366
a((F702.9092004085626
F471.6457468399681
F70.87857826994501
F0.7168874600132515
F1.1246282756619002
tp367
(I14
I484
tp368
tp369
a((F137.28125063330168
F-479.8256484425585
F86.63904812030978
F1.1506375779654172
F4.168925271806391
tp370
(I8
I432
tp371
tp372
a((F766.257098688959
F947.3100750238632
F101.90432575798098
F0.6925424576932201
F1.1423170918660515
tp373
(I1
I334
tp374
tp375
a((F-37.28924833266589
F93.00895805718585
F46.81806679760269
F1.2338156857774276
F2.6403211515818703
tp376
(I26
I85
tp377
tp378
a((F172.4214838356619
F-232.9560140016892
F59.0497596774332
F0.7969549150148202
F3.9257520924680605
tp379
(I18
I424
tp380
tp381
a((F963.452238873958
F-174.5685388019227
F90.54953551832999
F0.9105093359555478
F6.02268480609962
tp382
(I34
I181
tp383
tp384
a((F-321.5016765043662
F323.94079130286207
F111.19168596618276
F0.2810783307808701
F2.663711184903314
tp385
(I15
I275
tp386
tp387
a((F491.4003775425481
F-234.3808503356323
F56.5468203791782
F0.6945806595519478
F5.3717735536294615
tp388
(I19
I295
tp389
tp390
a((F-173.44307754632996
F-320.79250163691046
F72.44128398149677
F0.5372577395990611
F3.93352889500402
tp391
(I14
I157
tp392
tp393
a((F-608.9426266164463
F-176.83629232388552
F111.10778768573009
F0.38270362089603016
F3.3610878307518037
tp394
(I13
I242
tp395
tp396
a((F359.82380530267966
F82.19868798395896
F57.44842414817587
F0.651553578802093
F0.202333890700207
tp397
(I17
I42
tp398
tp399
a((F136.69995264666477
F-416.8977195260303
F80.8446602329973
F1.1286272300611657
F4.153396430539004
tp400
(I20
I410
tp401
tp402
a((F558.4125075346806
F-404.9481372248127
F67.80572138857963
F0.7459396649175662
F5.203681211189584
tp403
(I7
I338
tp404
tp405
a((F436.2585082738872
F-184.8415506650556
F78.37678464942495
F0.3883180460675191
F5.8129911600522854
tp406
(I14
I45
tp407
tp408
a((F195.75607200843285
F334.4659162471983
F65.16582002072322
F0.47353571198610744
F1.101998845973269
tp409
(I21
I37
tp410
tp411
a((F541.0545446221815
F-204.59241002499465
F94.81387220083366
F1.2736841461622495
F5.870875674731534
tp412
(I1
I71
tp413
tp414
a((F289.99135311799165
F221.290396395757
F50.570891152910896
F0.5197486988596316
F1.10975070682043
tp415
(I20
I190
tp416
tp417
a((F315.9695670716235
F-536.1696925576213
F101.92292803712917
F1.2944298686241063
F4.444744639479795
tp418
(I0
I463
tp419
tp420
a((F-138.48449362380157
F257.941688340653
F69.81639131658518
F1.256026124416014
F2.083423515461774
tp421
(I3
I5
tp422
tp423
a((F-268.5710285833682
F807.6915260472616
F98.74470653453416
F0.5010730581568871
F1.917477665180834
tp424
(I20
I16
tp425
tp426
a((F-809.7581233484459
F-65.7828659296816
F112.23152102106143
F0.787867141904331
F3.2123564313574304
tp427
(I25
I471
tp428
tp429
a((F585.5076766478575
F-474.94726307626604
F106.31109991809765
F1.3044325957390912
F5.271771811243911
tp430
(I21
I275
tp431
tp432
a((F-619.4296716491549
F712.5800157578151
F100.05575636177386
F0.5818306472460612
F2.313056671459169
tp433
(I22
I14
tp434
tp435
a((F158.58400290264737
F247.28067482740585
F59.64317278484608
F0.4114843185433176
F1.0400026674277272
tp436
(I18
I24
tp437
tp438
a((F456.00287593916005
F-116.86121141479535
F52.44599447355447
F0.8370093717295991
F5.770258032779142
tp439
(I20
I213
tp440
tp441
a((F551.1968544389028
F-9.499998689648198
F63.342367302717
F0.9318035990869716
F6.238480604263787
tp442
(I8
I160
tp443
tp444
a((F506.4417120981497
F453.6397238975831
F78.61776792348209
F0.7029663238885181
F0.7412373831081877
tp445
(I34
I48
tp446
tp447
a((F233.74820036659094
F438.0526730282117
F78.0374144155184
F1.1764890370943981
F1.3539430430625812
tp448
(I8
I139
tp449
tp450
a((F-40.73837314067737
F124.72015475894108
F54.45443332886134
F1.2227509104718066
F2.495341101596851
tp451
(I8
I114
tp452
tp453
a((F468.7782498139171
F-414.32144298665213
F88.73708180463488
F0.4103603996677725
F5.465822124992405
tp454
(I14
I67
tp455
tp456
a((F445.5472929516128
F-163.0245550657097
F47.76110116069886
F0.49372689949185683
F5.1347083873475015
tp457
(I14
I366
tp458
tp459
a((F94.5278338443219
F513.4966015496786
F70.40362153710986
F0.8036213560183906
F1.4725501330655961
tp460
(I11
I45
tp461
tp462
a((F693.3085540955765
F-44.21199859575999
F63.61427902188454
F1.0406894851922204
F6.106633416719628
tp463
(I19
I339
tp464
tp465
a((F137.38717457942624
F78.07047456602088
F48.0306071740639
F1.2614818797239171
F0.4890772784732122
tp466
(I14
I17
tp467
tp468
a((F53.115084111715476
F-1056.078287652934
F102.97599962764254
F0.7940483655947337
F4.585394293817495
tp469
(I16
I190
tp470
tp471
a((F595.8262611188034
F-142.69912358152754
F60.999249272190056
F0.6953135770497052
F5.808065837140409
tp472
(I28
I264
tp473
tp474
a((F433.7088040224619
F796.4351675041238
F96.47473495173374
F0.5590511413130052
F1.1879668571109236
tp475
(I5
I115
tp476
tp477
a((F75.35175456556335
F182.922260284013
F57.531485600498264
F1.2933121293992205
F2.047963435047437
tp478
(I25
I157
tp479
tp480
a((F-47.4020294794679
F31.012343423480257
F60.391714085266614
F0.45044287880596906
F3.12782442453761
tp481
(I27
I244
tp482
tp483
a((F-533.5147755342869
F261.52411893447436
F92.68154604916114
F0.7687707518891104
F2.8512635212012123
tp484
(I11
I305
tp485
tp486
a((F748.0805684276561
F-14.081361851185285
F91.16408289008864
F1.2123818052030875
F6.2093102648257155
tp487
(I27
I193
tp488
tp489
a((F204.348976514415
F412.3117510484461
F75.01112205870926
F0.4175183758547221
F1.8930238452739654
tp490
(I9
I339
tp491
tp492
a((F284.08160827510306
F127.8539496721348
F52.02667012901908
F1.1719561821675173
F0.5717089081086858
tp493
(I21
I118
tp494
tp495
a((F464.1849179221132
F-111.12899740034896
F79.40543269471502
F0.2710659413923802
F5.830227696343598
tp496
(I34
I166
tp497
tp498
a((F-497.42654700185506
F-1025.7190818013075
F113.83423081797203
F0.7078511328552454
F4.076159762288657
tp499
(I24
I278
tp500
tp501
a((F301.6911206719333
F-231.1283454326895
F61.66514483706287
F1.219750933558363
F4.8959389255940104
tp502
(I15
I256
tp503
tp504
a((F-209.67041025043778
F132.47410188157934
F57.14482971717858
F0.9632665258579792
F2.7521418702284377
tp505
(I14
I79
tp506
tp507
a((F918.823547432799
F-754.0270226173783
F108.45302107513355
F0.9725913594918268
F5.517936213872447
tp508
(I19
I114
tp509
tp510
a((F630.5984285959128
F-183.88541325293068
F66.22892092340611
F0.5312974896331083
F5.746000807480443
tp511
(I16
I295
tp512
tp513
a((F-87.65779246078077
F-138.20061305315073
F57.02747017944654
F0.4407870187109555
F3.716896386143964
tp514
(I1
I127
tp515
tp516
a((F779.5630173948867
F260.23575756889676
F93.69042662699331
F0.3614716896660249
F0.44015759768016993
tp517
(I8
I244
tp518
tp519
a((F-878.402170181855
F-282.8225969514559
F107.2453153966819
F1.0954791566876578
F3.472313918470567
tp520
(I27
I24
tp521
tp522
a((F352.94441191983395
F1264.9186904645092
F113.23747699073573
F0.9170003562679138
F1.5542005752513715
tp523
(I3
I332
tp524
tp525
a((F375.798087467064
F1134.0883673956853
F108.65898073555103
F0.6090765140709095
F1.3713341655962579
tp526
(I27
I152
tp527
tp528
a((F932.7354653198892
F420.3782237513273
F102.27458300990506
F0.593664489080046
F0.430183152847733
tp529
(I8
I34
tp530
tp531
a((F1272.3022968048422
F-537.5067629802232
F112.81519582943216
F0.8726630510152941
F5.843792768776252
tp532
(I6
I116
tp533
tp534
a((F185.0035688903249
F-173.375628466611
F56.2891460762309
F1.0069296555618175
F3.847858838118075
tp535
(I16
I407
tp536
tp537
a((F321.5582751502115
F-295.40034541476456
F61.918661190508054
F0.4852469557935576
F4.735828443194383
tp538
(I27
I314
tp539
tp540
a((F538.8219842121894
F901.3669759628697
F107.5615316565686
F1.1449493001103583
F1.4546593598169455
tp541
(I20
I436
tp542
tp543
a((F616.4947156431361
F-408.9920387104459
F80.66564313883053
F0.48062760153573064
F5.415133841068092
tp544
(I6
I265
tp545
tp546
a((F-357.813806119029
F-1104.7543374150132
F113.8676856419699
F0.8789319572518309
F4.176749285635922
tp547
(I12
I305
tp548
tp549
a((F373.10187215926965
F-678.9687833731232
F84.16914808997014
F0.670735908763853
F4.835129506348998
tp550
(I19
I287
tp551
tp552
a((F160.67159457658497
F-511.17850333142815
F76.66646285949703
F0.5967484738557925
F4.444707704855792
tp553
(I26
I308
tp554
tp555
a((F-675.9625050988889
F-69.70776748535815
F109.39224300153823
F1.0228114103252433
F3.2151294331353695
tp556
(I10
I406
tp557
tp558
a((F132.01309040442567
F-883.7519271865915
F106.02839581329737
F0.45386217246379207
F4.811107818540843
tp559
(I15
I43
tp560
tp561
a((F-152.6502708394363
F-89.65927456581946
F72.88459336187874
F1.1694455950566247
F3.4619852732540664
tp562
(I33
I217
tp563
tp564
a((F64.8776042420796
F-439.11992114307645
F80.75101462218367
F0.5716318581912957
F3.9983585029124917
tp565
(I18
I461
tp566
tp567
a((F590.9872849585191
F-692.5306957681885
F88.69774750709422
F1.001601353486203
F4.875142860976324
tp568
(I26
I473
tp569
tp570
a((F-305.4859223391543
F-968.5261587131936
F107.31355983770482
F0.5503674758281473
F4.371924864917671
tp571
(I18
I44
tp572
tp573
a((F4.884988175170861
F-694.4477993828227
F98.12114531277888
F0.4218288868681756
F4.457151593421606
tp574
(I15
I190
tp575
tp576
a((F950.0999210730931
F-220.6625910755136
F98.29605381838007
F0.36198633416019294
F5.916879334723256
tp577
(I13
I341
tp578
tp579
a((F99.04743349023116
F698.2847754937313
F105.94603933409617
F1.2569028944385539
F1.523092102105541
tp580
(I27
I67
tp581
tp582
a((F507.97373320804434
F493.0764517922286
F88.68715354462122
F1.2375536187000933
F1.3635915358187463
tp583
(I8
I406
tp584
tp585
a((F519.4423877014397
F-733.7029816666947
F98.88142601086778
F0.4525828850759075
F5.000096558609496
tp586
(I18
I297
tp587
tp588
a((F-80.40659229442491
F-767.55324162337
F97.17556725453447
F0.9445106234407805
F4.1668347834346395
tp589
(I14
I394
tp590
tp591
a((F-548.4732883475622
F915.0533848933375
F105.10262170217604
F0.9084432192015792
F2.195201954254729
tp592
(I29
I90
tp593
tp594
a((F-105.42142268561554
F568.4869528846262
F83.95229388773477
F0.6113540504774853
F2.1835608527281987
tp595
(I16
I283
tp596
tp597
a((F884.6460671316055
F-300.18548553886274
F91.51136041398763
F1.1426234359853416
F5.760055163845706
tp598
(I22
I326
tp599
tp600
a.